target datalayout = "e-m:e-p270:32:32-p271:32:32-p272:64:64-i64:64-i128:128-f80:128-n8:16:32:64-S128"
target triple = "x86_64-pc-linux-gnu"

%struct.BlockRefTableKey = type { %struct.RelFileLocator, i32 }
%struct.RelFileLocator = type { i32, i32, i32 }
%struct.BlockRefTableEntry = type { %struct.BlockRefTableKey, i32, i8, i32, ptr, ptr, ptr }

; Function Attrs: nounwind uwtable
define dso_local i32 @BlockRefTableEntryGetBlocks(ptr noundef %0, i32 noundef %1, i32 noundef %2, ptr noundef %3, i32 noundef %4) #0 {
  %6 = alloca i32, align 4
  %7 = alloca ptr, align 8
  %8 = alloca i32, align 4
  %9 = alloca i32, align 4
  %10 = alloca ptr, align 8
  %11 = alloca i32, align 4
  %12 = alloca i32, align 4
  %13 = alloca i32, align 4
  %14 = alloca i32, align 4
  %15 = alloca i32, align 4
  %16 = alloca i16, align 2
  %17 = alloca ptr, align 8
  %18 = alloca i32, align 4
  %19 = alloca i32, align 4
  %20 = alloca i32, align 4
  %21 = alloca i16, align 2
  %22 = alloca i32, align 4
  %23 = alloca i32, align 4
  %24 = alloca i32, align 4
  %25 = alloca i16, align 2
  %26 = alloca i32, align 4
  store ptr %0, ptr %7, align 8
  store i32 %1, ptr %8, align 4
  store i32 %2, ptr %9, align 4
  store ptr %3, ptr %10, align 8
  store i32 %4, ptr %11, align 4
  call void @llvm.lifetime.start.p0(i64 4, ptr %12) #10
  call void @llvm.lifetime.start.p0(i64 4, ptr %13) #10
  call void @llvm.lifetime.start.p0(i64 4, ptr %14) #10
  call void @llvm.lifetime.start.p0(i64 4, ptr %15) #10
  store i32 0, ptr %15, align 4
  %27 = load i32, ptr %8, align 4
  %28 = udiv i32 %27, 65536
  store i32 %28, ptr %12, align 4
  %29 = load i32, ptr %9, align 4
  %30 = udiv i32 %29, 65536
  store i32 %30, ptr %13, align 4
  %31 = load i32, ptr %9, align 4
  %32 = urem i32 %31, 65536
  %33 = icmp ne i32 %32, 0
  br i1 %33, label %34, label %37

34:                                               ; preds = %5
  %35 = load i32, ptr %13, align 4
  %36 = add i32 %35, 1
  store i32 %36, ptr %13, align 4
  br label %37

37:                                               ; preds = %34, %5
  %38 = load i32, ptr %13, align 4
  %39 = load ptr, ptr %7, align 8
  %40 = getelementptr inbounds nuw %struct.BlockRefTableEntry, ptr %39, i32 0, i32 3
  %41 = load i32, ptr %40, align 8
  %42 = icmp ugt i32 %38, %41
  br i1 %42, label %43, label %47

43:                                               ; preds = %37
  %44 = load ptr, ptr %7, align 8
  %45 = getelementptr inbounds nuw %struct.BlockRefTableEntry, ptr %44, i32 0, i32 3
  %46 = load i32, ptr %45, align 8
  store i32 %46, ptr %13, align 4
  br label %47

47:                                               ; preds = %43, %37
  %48 = load i32, ptr %12, align 4
  store i32 %48, ptr %14, align 4
  br label %49

49:                                               ; preds = %198, %47
  %50 = load i32, ptr %14, align 4
  %51 = load i32, ptr %13, align 4
  %52 = icmp ult i32 %50, %51
  br i1 %52, label %53, label %201

53:                                               ; preds = %49
  call void @llvm.lifetime.start.p0(i64 2, ptr %16) #10
  %54 = load ptr, ptr %7, align 8
  %55 = getelementptr inbounds nuw %struct.BlockRefTableEntry, ptr %54, i32 0, i32 5
  %56 = load ptr, ptr %55, align 8
  %57 = load i32, ptr %14, align 4
  %58 = zext i32 %57 to i64
  %59 = getelementptr inbounds nuw i16, ptr %56, i64 %58
  %60 = load i16, ptr %59, align 2
  store i16 %60, ptr %16, align 2
  call void @llvm.lifetime.start.p0(i64 8, ptr %17) #10
  %61 = load ptr, ptr %7, align 8
  %62 = getelementptr inbounds nuw %struct.BlockRefTableEntry, ptr %61, i32 0, i32 6
  %63 = load ptr, ptr %62, align 8
  %64 = load i32, ptr %14, align 4
  %65 = zext i32 %64 to i64
  %66 = getelementptr inbounds nuw ptr, ptr %63, i64 %65
  %67 = load ptr, ptr %66, align 8
  store ptr %67, ptr %17, align 8
  call void @llvm.lifetime.start.p0(i64 4, ptr %18) #10
  store i32 0, ptr %18, align 4
  call void @llvm.lifetime.start.p0(i64 4, ptr %19) #10
  store i32 65536, ptr %19, align 4
  %68 = load i32, ptr %14, align 4
  %69 = load i32, ptr %12, align 4
  %70 = icmp eq i32 %68, %69
  br i1 %70, label %71, label %74

71:                                               ; preds = %53
  %72 = load i32, ptr %8, align 4
  %73 = urem i32 %72, 65536
  store i32 %73, ptr %18, align 4
  br label %74

74:                                               ; preds = %71, %53
  %75 = load i32, ptr %14, align 4
  %76 = load i32, ptr %13, align 4
  %77 = sub i32 %76, 1
  %78 = icmp eq i32 %75, %77
  br i1 %78, label %79, label %84

79:                                               ; preds = %74
  %80 = load i32, ptr %9, align 4
  %81 = load i32, ptr %14, align 4
  %82 = mul i32 %81, 65536
  %83 = sub i32 %80, %82
  store i32 %83, ptr %19, align 4
  br label %84

84:                                               ; preds = %79, %74
  %85 = load i16, ptr %16, align 2
  %86 = zext i16 %85 to i64
  %87 = icmp eq i64 %86, 4096
  br i1 %87, label %88, label %141

88:                                               ; preds = %84
  call void @llvm.lifetime.start.p0(i64 4, ptr %20) #10
  %89 = load i32, ptr %18, align 4
  store i32 %89, ptr %20, align 4
  br label %90

90:                                               ; preds = %134, %88
  %91 = load i32, ptr %20, align 4
  %92 = load i32, ptr %19, align 4
  %93 = icmp ult i32 %91, %92
  br i1 %93, label %94, label %137

94:                                               ; preds = %90
  call void @llvm.lifetime.start.p0(i64 2, ptr %21) #10
  %95 = load ptr, ptr %17, align 8
  %96 = load i32, ptr %20, align 4
  %97 = zext i32 %96 to i64
  %98 = udiv i64 %97, 16
  %99 = getelementptr inbounds nuw i16, ptr %95, i64 %98
  %100 = load i16, ptr %99, align 2
  store i16 %100, ptr %21, align 2
  %101 = load i16, ptr %21, align 2
  %102 = zext i16 %101 to i32
  %103 = load i32, ptr %20, align 4
  %104 = zext i32 %103 to i64
  %105 = urem i64 %104, 16
  %106 = trunc i64 %105 to i32
  %107 = shl i32 1, %106
  %108 = and i32 %102, %107
  %109 = icmp ne i32 %108, 0
  br i1 %109, label %110, label %130

110:                                              ; preds = %94
  call void @llvm.lifetime.start.p0(i64 4, ptr %22) #10
  %111 = load i32, ptr %14, align 4
  %112 = mul i32 %111, 65536
  %113 = load i32, ptr %20, align 4
  %114 = add i32 %112, %113
  store i32 %114, ptr %22, align 4
  %115 = load i32, ptr %22, align 4
  %116 = load ptr, ptr %10, align 8
  %117 = load i32, ptr %15, align 4
  %118 = add i32 %117, 1
  store i32 %118, ptr %15, align 4
  %119 = sext i32 %117 to i64
  %120 = getelementptr inbounds i32, ptr %116, i64 %119
  store i32 %115, ptr %120, align 4
  %121 = load i32, ptr %15, align 4
  %122 = load i32, ptr %11, align 4
  %123 = icmp eq i32 %121, %122
  br i1 %123, label %124, label %126

124:                                              ; preds = %110
  %125 = load i32, ptr %15, align 4
  store i32 %125, ptr %6, align 4
  store i32 1, ptr %23, align 4
  br label %127

126:                                              ; preds = %110
  store i32 0, ptr %23, align 4
  br label %127

127:                                              ; preds = %126, %124
  call void @llvm.lifetime.end.p0(i64 4, ptr %22) #10
  %128 = load i32, ptr %23, align 4
  switch i32 %128, label %131 [
    i32 0, label %129
  ]

129:                                              ; preds = %127
  br label %130

130:                                              ; preds = %129, %94
  store i32 0, ptr %23, align 4
  br label %131

131:                                              ; preds = %130, %127
  call void @llvm.lifetime.end.p0(i64 2, ptr %21) #10
  %132 = load i32, ptr %23, align 4
  switch i32 %132, label %138 [
    i32 0, label %133
  ]

133:                                              ; preds = %131
  br label %134

134:                                              ; preds = %133
  %135 = load i32, ptr %20, align 4
  %136 = add i32 %135, 1
  store i32 %136, ptr %20, align 4
  br label %90, !llvm.loop !13

137:                                              ; preds = %90
  store i32 0, ptr %23, align 4
  br label %138

138:                                              ; preds = %137, %131
  call void @llvm.lifetime.end.p0(i64 4, ptr %20) #10
  %139 = load i32, ptr %23, align 4
  switch i32 %139, label %195 [
    i32 0, label %140
  ]

140:                                              ; preds = %138
  br label %194

141:                                              ; preds = %84
  call void @llvm.lifetime.start.p0(i64 4, ptr %24) #10
  store i32 0, ptr %24, align 4
  br label %142

142:                                              ; preds = %187, %141
  %143 = load i32, ptr %24, align 4
  %144 = load i16, ptr %16, align 2
  %145 = zext i16 %144 to i32
  %146 = icmp ult i32 %143, %145
  br i1 %146, label %147, label %190

147:                                              ; preds = %142
  call void @llvm.lifetime.start.p0(i64 2, ptr %25) #10
  %148 = load ptr, ptr %17, align 8
  %149 = load i32, ptr %24, align 4
  %150 = zext i32 %149 to i64
  %151 = getelementptr inbounds nuw i16, ptr %148, i64 %150
  %152 = load i16, ptr %151, align 2
  store i16 %152, ptr %25, align 2
  %153 = load i16, ptr %25, align 2
  %154 = zext i16 %153 to i32
  %155 = load i32, ptr %18, align 4
  %156 = icmp uge i32 %154, %155
  br i1 %156, label %157, label %183

157:                                              ; preds = %147
  %158 = load i16, ptr %25, align 2
  %159 = zext i16 %158 to i32
  %160 = load i32, ptr %19, align 4
  %161 = icmp ult i32 %159, %160
  br i1 %161, label %162, label %183

162:                                              ; preds = %157
  call void @llvm.lifetime.start.p0(i64 4, ptr %26) #10
  %163 = load i32, ptr %14, align 4
  %164 = mul i32 %163, 65536
  %165 = load i16, ptr %25, align 2
  %166 = zext i16 %165 to i32
  %167 = add i32 %164, %166
  store i32 %167, ptr %26, align 4
  %168 = load i32, ptr %26, align 4
  %169 = load ptr, ptr %10, align 8
  %170 = load i32, ptr %15, align 4
  %171 = add i32 %170, 1
  store i32 %171, ptr %15, align 4
  %172 = sext i32 %170 to i64
  %173 = getelementptr inbounds i32, ptr %169, i64 %172
  store i32 %168, ptr %173, align 4
  %174 = load i32, ptr %15, align 4
  %175 = load i32, ptr %11, align 4
  %176 = icmp eq i32 %174, %175
  br i1 %176, label %177, label %179

177:                                              ; preds = %162
  %178 = load i32, ptr %15, align 4
  store i32 %178, ptr %6, align 4
  store i32 1, ptr %23, align 4
  br label %180

179:                                              ; preds = %162
  store i32 0, ptr %23, align 4
  br label %180

180:                                              ; preds = %179, %177
  call void @llvm.lifetime.end.p0(i64 4, ptr %26) #10
  %181 = load i32, ptr %23, align 4
  switch i32 %181, label %184 [
    i32 0, label %182
  ]

182:                                              ; preds = %180
  br label %183

183:                                              ; preds = %182, %157, %147
  store i32 0, ptr %23, align 4
  br label %184

184:                                              ; preds = %183, %180
  call void @llvm.lifetime.end.p0(i64 2, ptr %25) #10
  %185 = load i32, ptr %23, align 4
  switch i32 %185, label %191 [
    i32 0, label %186
  ]

186:                                              ; preds = %184
  br label %187

187:                                              ; preds = %186
  %188 = load i32, ptr %24, align 4
  %189 = add i32 %188, 1
  store i32 %189, ptr %24, align 4
  br label %142, !llvm.loop !14

190:                                              ; preds = %142
  store i32 0, ptr %23, align 4
  br label %191

191:                                              ; preds = %190, %184
  call void @llvm.lifetime.end.p0(i64 4, ptr %24) #10
  %192 = load i32, ptr %23, align 4
  switch i32 %192, label %195 [
    i32 0, label %193
  ]

193:                                              ; preds = %191
  br label %194

194:                                              ; preds = %193, %140
  store i32 0, ptr %23, align 4
  br label %195

195:                                              ; preds = %194, %191, %138
  call void @llvm.lifetime.end.p0(i64 4, ptr %19) #10
  call void @llvm.lifetime.end.p0(i64 4, ptr %18) #10
  call void @llvm.lifetime.end.p0(i64 8, ptr %17) #10
  call void @llvm.lifetime.end.p0(i64 2, ptr %16) #10
  %196 = load i32, ptr %23, align 4
  switch i32 %196, label %203 [
    i32 0, label %197
  ]

197:                                              ; preds = %195
  br label %198

198:                                              ; preds = %197
  %199 = load i32, ptr %14, align 4
  %200 = add i32 %199, 1
  store i32 %200, ptr %14, align 4
  br label %49, !llvm.loop !15

201:                                              ; preds = %49
  %202 = load i32, ptr %15, align 4
  store i32 %202, ptr %6, align 4
  store i32 1, ptr %23, align 4
  br label %203

203:                                              ; preds = %201, %195
  call void @llvm.lifetime.end.p0(i64 4, ptr %15) #10
  call void @llvm.lifetime.end.p0(i64 4, ptr %14) #10
  call void @llvm.lifetime.end.p0(i64 4, ptr %13) #10
  call void @llvm.lifetime.end.p0(i64 4, ptr %12) #10
  %204 = load i32, ptr %6, align 4
  ret i32 %204
}