; Function Attrs: nofree norecurse nosync nounwind memory(read, argmem: readwrite, inaccessiblemem: none) uwtable
define dso_local i32 @BlockRefTableEntryGetBlocks(ptr noundef readonly captures(none) %0, i32 noundef %1, i32 noundef %2, ptr noundef writeonly captures(none) %3, i32 noundef %4) local_unnamed_addr #7 {
  %6 = lshr i32 %1, 16
  %7 = lshr i32 %2, 16
  %8 = and i32 %2, 65535
  %.not = icmp ne i32 %8, 0
  %9 = zext i1 %.not to i32
  %spec.select = add nuw nsw i32 %7, %9
  %10 = getelementptr inbounds nuw i8, ptr %0, i64 24
  %11 = load i32, ptr %10, align 8
  %.171 = tail call i32 @llvm.umin.i32(i32 %spec.select, i32 %11)
  %12 = icmp samesign ult i32 %6, %.171
  br i1 %12, label %.lr.ph156, label %.thread113

.lr.ph156:                                        ; preds = %5
  %13 = getelementptr inbounds nuw i8, ptr %0, i64 40
  %14 = getelementptr inbounds nuw i8, ptr %0, i64 48
  %15 = and i32 %1, 65535
  %16 = add nsw i32 %.171, -1
  %17 = lshr i32 %1, 16
  %18 = zext nneg i32 %17 to i64
  %19 = zext nneg i32 %6 to i64
  %20 = zext nneg i32 %16 to i64
  %21 = add nuw nsw i32 %.171, %17
  %22 = sub nsw i32 %21, %6
  %wide.trip.count165 = zext i32 %22 to i64
  br label %23

23:                                               ; preds = %.lr.ph156, %.loopexit
  %indvars.iv163 = phi i64 [ %18, %.lr.ph156 ], [ %indvars.iv.next164, %.loopexit ]
  %.081153 = phi i32 [ 0, %.lr.ph156 ], [ %.586.ph, %.loopexit ]
  %24 = load ptr, ptr %13, align 8
  %25 = getelementptr inbounds nuw i16, ptr %24, i64 %indvars.iv163
  %26 = load i16, ptr %25, align 2
  %27 = load ptr, ptr %14, align 8
  %28 = getelementptr inbounds nuw ptr, ptr %27, i64 %indvars.iv163
  %29 = load ptr, ptr %28, align 8
  %30 = icmp eq i64 %indvars.iv163, %19
  %spec.select105 = select i1 %30, i32 %15, i32 0
  %31 = icmp eq i64 %indvars.iv163, %20
  %indvars.iv163.tr = trunc i64 %indvars.iv163 to i32
  %32 = shl i32 %indvars.iv163.tr, 16
  %33 = sub i32 %2, %32
  %.093 = select i1 %31, i32 %33, i32 65536
  switch i16 %26, label %.lr.ph.preheader [
    i16 4096, label %.preheader
    i16 0, label %.loopexit
  ]

.lr.ph.preheader:                                 ; preds = %23
  %wide.trip.count = zext i16 %26 to i64
  br label %.lr.ph

.preheader:                                       ; preds = %23
  %.not104146 = icmp ult i32 %spec.select105, %.093
  br i1 %.not104146, label %.lr.ph150, label %.loopexit

.lr.ph150:                                        ; preds = %.preheader, %.thread
  %.182148 = phi i32 [ %.384111, %.thread ], [ %.081153, %.preheader ]
  %.092147 = phi i32 [ %47, %.thread ], [ %spec.select105, %.preheader ]
  %34 = lshr i32 %.092147, 4
  %35 = zext nneg i32 %34 to i64
  %36 = getelementptr inbounds nuw i16, ptr %29, i64 %35
  %37 = load i16, ptr %36, align 2
  %38 = zext i16 %37 to i32
  %39 = and i32 %.092147, 15
  %40 = shl nuw nsw i32 1, %39
  %41 = and i32 %40, %38
  %.not102 = icmp eq i32 %41, 0
  br i1 %.not102, label %.thread, label %42

42:                                               ; preds = %.lr.ph150
  %43 = add i32 %.092147, %32
  %44 = add i32 %.182148, 1
  %45 = sext i32 %.182148 to i64
  %46 = getelementptr inbounds i32, ptr %3, i64 %45
  store i32 %43, ptr %46, align 4
  %.not103.not = icmp eq i32 %44, %4
  br i1 %.not103.not, label %.thread113, label %.thread

.thread:                                          ; preds = %.lr.ph150, %42
  %.384111 = phi i32 [ %44, %42 ], [ %.182148, %.lr.ph150 ]
  %47 = add i32 %.092147, 1
  %exitcond162.not = icmp eq i32 %47, %.093
  br i1 %exitcond162.not, label %.loopexit, label %.lr.ph150, !llvm.loop !16

.lr.ph:                                           ; preds = %.lr.ph.preheader, %.thread116
  %indvars.iv = phi i64 [ 0, %.lr.ph.preheader ], [ %indvars.iv.next, %.thread116 ]
  %.788142 = phi i32 [ %.081153, %.lr.ph.preheader ], [ %.990120, %.thread116 ]
  %48 = getelementptr inbounds nuw i16, ptr %29, i64 %indvars.iv
  %49 = load i16, ptr %48, align 2
  %50 = zext i16 %49 to i32
  %.not99 = icmp samesign ule i32 %spec.select105, %50
  %51 = icmp ugt i32 %.093, %50
  %or.cond = select i1 %.not99, i1 %51, i1 false
  br i1 %or.cond, label %52, label %.thread116

52:                                               ; preds = %.lr.ph
  %53 = or disjoint i32 %32, %50
  %54 = add i32 %.788142, 1
  %55 = sext i32 %.788142 to i64
  %56 = getelementptr inbounds i32, ptr %3, i64 %55
  store i32 %53, ptr %56, align 4
  %.not100.not = icmp eq i32 %54, %4
  br i1 %.not100.not, label %.thread113, label %.thread116

.thread116:                                       ; preds = %.lr.ph, %52
  %.990120 = phi i32 [ %54, %52 ], [ %.788142, %.lr.ph ]
  %indvars.iv.next = add nuw nsw i64 %indvars.iv, 1
  %exitcond.not = icmp eq i64 %indvars.iv.next, %wide.trip.count
  br i1 %exitcond.not, label %.loopexit, label %.lr.ph, !llvm.loop !17

.loopexit:                                        ; preds = %.thread, %.thread116, %23, %.preheader
  %.586.ph = phi i32 [ %.081153, %.preheader ], [ %.081153, %23 ], [ %.990120, %.thread116 ], [ %.384111, %.thread ]
  %indvars.iv.next164 = add nuw nsw i64 %indvars.iv163, 1
  %exitcond166.not = icmp eq i64 %indvars.iv.next164, %wide.trip.count165
  br i1 %exitcond166.not, label %.thread113, label %23, !llvm.loop !18

.thread113:                                       ; preds = %.loopexit, %42, %52, %5
  %.13 = phi i32 [ 0, %5 ], [ %54, %52 ], [ %44, %42 ], [ %.586.ph, %.loopexit ]
  ret i32 %.13
}